; Function Attrs: nounwind uwtable
define zeroext range(i8 0, 2) i8 @l_Lean_KVMap_subsetAux(ptr noundef %0, ptr noundef %1) local_unnamed_addr #0 {
  br label %lean_dec.exit39

lean_dec.exit39:                                  ; preds = %lean_dec.exit38, %2
  %.029 = phi ptr [ %0, %2 ], [ %24, %lean_dec.exit38 ]
  %3 = ptrtoint ptr %.029 to i64
  %4 = and i64 %3, 1
  %.not.i56 = icmp eq i64 %4, 0
  br i1 %.not.i56, label %8, label %5

5:                                                ; preds = %lean_dec.exit39
  %6 = lshr i64 %3, 1
  %7 = trunc i64 %6 to i32
  br label %lean_obj_tag.exit

8:                                                ; preds = %lean_dec.exit39
  %9 = getelementptr i8, ptr %.029, i64 4
  %.val.i = load i32, ptr %9, align 4
  %10 = lshr i32 %.val.i, 24
  br label %lean_obj_tag.exit

lean_obj_tag.exit:                                ; preds = %5, %8
  %.0.i = phi i32 [ %7, %5 ], [ %10, %8 ]
  %11 = icmp eq i32 %.0.i, 0
  br i1 %11, label %lean_dec.exit39.thread, label %12

12:                                               ; preds = %lean_obj_tag.exit
  %13 = getelementptr inbounds nuw i8, ptr %.029, i64 8
  %14 = load ptr, ptr %13, align 8, !tbaa !4
  %15 = ptrtoint ptr %14 to i64
  %16 = and i64 %15, 1
  %.not = icmp eq i64 %16, 0
  br i1 %.not, label %17, label %lean_inc.exit37

17:                                               ; preds = %12
  %.val.i57 = load i32, ptr %14, align 4, !tbaa !8
  %18 = icmp sgt i32 %.val.i57, 0
  br i1 %18, label %19, label %21, !prof !11

19:                                               ; preds = %17
  %20 = add nuw i32 %.val.i57, 1
  store i32 %20, ptr %14, align 4, !tbaa !8
  br label %lean_inc.exit37

21:                                               ; preds = %17
  %.not.i58 = icmp eq i32 %.val.i57, 0
  br i1 %.not.i58, label %lean_inc.exit37, label %22

22:                                               ; preds = %21
  tail call void @lean_inc_ref_cold(ptr noundef nonnull %14) #6
  br label %lean_inc.exit37

lean_inc.exit37:                                  ; preds = %22, %21, %19, %12
  %23 = getelementptr inbounds nuw i8, ptr %.029, i64 16
  %24 = load ptr, ptr %23, align 8, !tbaa !4
  %25 = ptrtoint ptr %24 to i64
  %26 = and i64 %25, 1
  %.not79 = icmp eq i64 %26, 0
  br i1 %.not79, label %27, label %lean_inc.exit36

27:                                               ; preds = %lean_inc.exit37
  %.val.i59 = load i32, ptr %24, align 4, !tbaa !8
  %28 = icmp sgt i32 %.val.i59, 0
  br i1 %28, label %29, label %31, !prof !11

29:                                               ; preds = %27
  %30 = add nuw i32 %.val.i59, 1
  store i32 %30, ptr %24, align 4, !tbaa !8
  br label %lean_inc.exit36

31:                                               ; preds = %27
  %.not.i60 = icmp eq i32 %.val.i59, 0
  br i1 %.not.i60, label %lean_inc.exit36, label %32

32:                                               ; preds = %31
  tail call void @lean_inc_ref_cold(ptr noundef nonnull %24) #6
  br label %lean_inc.exit36

lean_inc.exit36:                                  ; preds = %32, %31, %29, %lean_inc.exit37
  br i1 %.not.i56, label %33, label %lean_dec.exit43

33:                                               ; preds = %lean_inc.exit36
  %34 = load i32, ptr %.029, align 4, !tbaa !8
  %35 = icmp sgt i32 %34, 1
  br i1 %35, label %36, label %38, !prof !11

36:                                               ; preds = %33
  %37 = add nsw i32 %34, -1
  store i32 %37, ptr %.029, align 4, !tbaa !8
  br label %lean_dec.exit43

38:                                               ; preds = %33
  %.not.i = icmp eq i32 %34, 0
  br i1 %.not.i, label %lean_dec.exit43, label %39

39:                                               ; preds = %38
  tail call void @lean_dec_ref_cold(ptr noundef nonnull %.029) #6
  br label %lean_dec.exit43

lean_dec.exit43:                                  ; preds = %39, %38, %36, %lean_inc.exit36
  %40 = getelementptr inbounds nuw i8, ptr %14, i64 8
  %41 = load ptr, ptr %40, align 8, !tbaa !4
  %42 = ptrtoint ptr %41 to i64
  %43 = and i64 %42, 1
  %.not81 = icmp eq i64 %43, 0
  br i1 %.not81, label %44, label %lean_inc.exit35

44:                                               ; preds = %lean_dec.exit43
  %.val.i62 = load i32, ptr %41, align 4, !tbaa !8
  %45 = icmp sgt i32 %.val.i62, 0
  br i1 %45, label %46, label %48, !prof !11

46:                                               ; preds = %44
  %47 = add nuw i32 %.val.i62, 1
  store i32 %47, ptr %41, align 4, !tbaa !8
  br label %lean_inc.exit35

48:                                               ; preds = %44
  %.not.i63 = icmp eq i32 %.val.i62, 0
  br i1 %.not.i63, label %lean_inc.exit35, label %49

49:                                               ; preds = %48
  tail call void @lean_inc_ref_cold(ptr noundef nonnull %41) #6
  br label %lean_inc.exit35

lean_inc.exit35:                                  ; preds = %49, %48, %46, %lean_dec.exit43
  %50 = getelementptr inbounds nuw i8, ptr %14, i64 16
  %51 = load ptr, ptr %50, align 8, !tbaa !4
  %52 = ptrtoint ptr %51 to i64
  %53 = and i64 %52, 1
  %.not82 = icmp eq i64 %53, 0
  br i1 %.not82, label %54, label %lean_inc.exit34

54:                                               ; preds = %lean_inc.exit35
  %.val.i65 = load i32, ptr %51, align 4, !tbaa !8
  %55 = icmp sgt i32 %.val.i65, 0
  br i1 %55, label %56, label %58, !prof !11

56:                                               ; preds = %54
  %57 = add nuw i32 %.val.i65, 1
  store i32 %57, ptr %51, align 4, !tbaa !8
  br label %lean_inc.exit34

58:                                               ; preds = %54
  %.not.i66 = icmp eq i32 %.val.i65, 0
  br i1 %.not.i66, label %lean_inc.exit34, label %59

59:                                               ; preds = %58
  tail call void @lean_inc_ref_cold(ptr noundef nonnull %51) #6
  br label %lean_inc.exit34

lean_inc.exit34:                                  ; preds = %59, %58, %56, %lean_inc.exit35
  br i1 %.not, label %60, label %lean_dec.exit42

60:                                               ; preds = %lean_inc.exit34
  %61 = load i32, ptr %14, align 4, !tbaa !8
  %62 = icmp sgt i32 %61, 1
  br i1 %62, label %63, label %65, !prof !11

63:                                               ; preds = %60
  %64 = add nsw i32 %61, -1
  store i32 %64, ptr %14, align 4, !tbaa !8
  br label %lean_dec.exit42

65:                                               ; preds = %60
  %.not.i44 = icmp eq i32 %61, 0
  br i1 %.not.i44, label %lean_dec.exit42, label %66

66:                                               ; preds = %65
  tail call void @lean_dec_ref_cold(ptr noundef nonnull %14) #6
  br label %lean_dec.exit42

lean_dec.exit42:                                  ; preds = %66, %65, %63, %lean_inc.exit34
  %67 = tail call ptr @l_Lean_KVMap_findCore(ptr noundef %1, ptr noundef %41)
  br i1 %.not81, label %68, label %lean_dec.exit41

68:                                               ; preds = %lean_dec.exit42
  %69 = load i32, ptr %41, align 4, !tbaa !8
  %70 = icmp sgt i32 %69, 1
  br i1 %70, label %71, label %73, !prof !11

71:                                               ; preds = %68
  %72 = add nsw i32 %69, -1
  store i32 %72, ptr %41, align 4, !tbaa !8
  br label %lean_dec.exit41

73:                                               ; preds = %68
  %.not.i46 = icmp eq i32 %69, 0
  br i1 %.not.i46, label %lean_dec.exit41, label %74

74:                                               ; preds = %73
  tail call void @lean_dec_ref_cold(ptr noundef nonnull %41) #6
  br label %lean_dec.exit41

lean_dec.exit41:                                  ; preds = %74, %73, %71, %lean_dec.exit42
  %75 = ptrtoint ptr %67 to i64
  %76 = and i64 %75, 1
  %.not.i68 = icmp eq i64 %76, 0
  br i1 %.not.i68, label %80, label %77

77:                                               ; preds = %lean_dec.exit41
  %78 = lshr i64 %75, 1
  %79 = trunc i64 %78 to i32
  br label %lean_obj_tag.exit71

80:                                               ; preds = %lean_dec.exit41
  %81 = getelementptr i8, ptr %67, i64 4
  %.val.i70 = load i32, ptr %81, align 4
  %82 = lshr i32 %.val.i70, 24
  br label %lean_obj_tag.exit71

lean_obj_tag.exit71:                              ; preds = %77, %80
  %.0.i69 = phi i32 [ %79, %77 ], [ %82, %80 ]
  %83 = icmp eq i32 %.0.i69, 0
  br i1 %83, label %84, label %99

84:                                               ; preds = %lean_obj_tag.exit71
  br i1 %.not82, label %85, label %lean_dec.exit40

85:                                               ; preds = %84
  %86 = load i32, ptr %51, align 4, !tbaa !8
  %87 = icmp sgt i32 %86, 1
  br i1 %87, label %88, label %90, !prof !11

88:                                               ; preds = %85
  %89 = add nsw i32 %86, -1
  store i32 %89, ptr %51, align 4, !tbaa !8
  br label %lean_dec.exit40

90:                                               ; preds = %85
  %.not.i48 = icmp eq i32 %86, 0
  br i1 %.not.i48, label %lean_dec.exit40, label %91

91:                                               ; preds = %90
  tail call void @lean_dec_ref_cold(ptr noundef nonnull %51) #6
  br label %lean_dec.exit40

lean_dec.exit40:                                  ; preds = %91, %90, %88, %84
  br i1 %.not79, label %92, label %lean_dec.exit39.thread

92:                                               ; preds = %lean_dec.exit40
  %93 = load i32, ptr %24, align 4, !tbaa !8
  %94 = icmp sgt i32 %93, 1
  br i1 %94, label %95, label %97, !prof !11

95:                                               ; preds = %92
  %96 = add nsw i32 %93, -1
  store i32 %96, ptr %24, align 4, !tbaa !8
  br label %lean_dec.exit39.thread

97:                                               ; preds = %92
  %.not.i50 = icmp eq i32 %93, 0
  br i1 %.not.i50, label %lean_dec.exit39.thread, label %98

98:                                               ; preds = %97
  tail call void @lean_dec_ref_cold(ptr noundef nonnull %24) #6
  br label %lean_dec.exit39.thread

99:                                               ; preds = %lean_obj_tag.exit71
  %100 = getelementptr inbounds nuw i8, ptr %67, i64 8
  %101 = load ptr, ptr %100, align 8, !tbaa !4
  %102 = ptrtoint ptr %101 to i64
  %103 = and i64 %102, 1
  %.not83 = icmp eq i64 %103, 0
  br i1 %.not83, label %104, label %lean_inc.exit

104:                                              ; preds = %99
  %.val.i72 = load i32, ptr %101, align 4, !tbaa !8
  %105 = icmp sgt i32 %.val.i72, 0
  br i1 %105, label %106, label %108, !prof !11

106:                                              ; preds = %104
  %107 = add nuw i32 %.val.i72, 1
  store i32 %107, ptr %101, align 4, !tbaa !8
  br label %lean_inc.exit

108:                                              ; preds = %104
  %.not.i73 = icmp eq i32 %.val.i72, 0
  br i1 %.not.i73, label %lean_inc.exit, label %109

109:                                              ; preds = %108
  tail call void @lean_inc_ref_cold(ptr noundef nonnull %101) #6
  br label %lean_inc.exit

lean_inc.exit:                                    ; preds = %109, %108, %106, %99
  br i1 %.not.i68, label %110, label %lean_dec.exit38

110:                                              ; preds = %lean_inc.exit
  %111 = load i32, ptr %67, align 4, !tbaa !8
  %112 = icmp sgt i32 %111, 1
  br i1 %112, label %113, label %115, !prof !11

113:                                              ; preds = %110
  %114 = add nsw i32 %111, -1
  store i32 %114, ptr %67, align 4, !tbaa !8
  br label %lean_dec.exit38

115:                                              ; preds = %110
  %.not.i52 = icmp eq i32 %111, 0
  br i1 %.not.i52, label %lean_dec.exit38, label %116

116:                                              ; preds = %115
  tail call void @lean_dec_ref_cold(ptr noundef nonnull %67) #6
  br label %lean_dec.exit38

lean_dec.exit38:                                  ; preds = %116, %115, %113, %lean_inc.exit
  %117 = tail call zeroext i8 @l_Lean_beqDataValue____x40_Lean_Data_KVMap___hyg_70_(ptr noundef %51, ptr noundef %101)
  %118 = icmp eq i8 %117, 0
  br i1 %118, label %119, label %lean_dec.exit39

119:                                              ; preds = %lean_dec.exit38
  br i1 %.not79, label %120, label %lean_dec.exit39.thread

120:                                              ; preds = %119
  %121 = load i32, ptr %24, align 4, !tbaa !8
  %122 = icmp sgt i32 %121, 1
  br i1 %122, label %123, label %125, !prof !11

123:                                              ; preds = %120
  %124 = add nsw i32 %121, -1
  store i32 %124, ptr %24, align 4, !tbaa !8
  br label %lean_dec.exit39.thread

125:                                              ; preds = %120
  %.not.i54 = icmp eq i32 %121, 0
  br i1 %.not.i54, label %lean_dec.exit39.thread, label %126

126:                                              ; preds = %125
  tail call void @lean_dec_ref_cold(ptr noundef nonnull %24) #6
  br label %lean_dec.exit39.thread

lean_dec.exit39.thread:                           ; preds = %lean_obj_tag.exit, %119, %123, %125, %126, %lean_dec.exit40, %95, %97, %98
  %.1 = phi i8 [ 0, %98 ], [ 0, %97 ], [ 0, %95 ], [ 0, %lean_dec.exit40 ], [ 0, %126 ], [ 0, %125 ], [ 0, %123 ], [ 0, %119 ], [ 1, %lean_obj_tag.exit ]
  ret i8 %.1
}